(lp0
(lp1
S'A man is riding a bicycle'
p2
aS'A man is riding a bike'
p3
aF5.0
aa(lp4
S'A woman and man are dancing in the rain'
p5
aS'A man and woman are dancing in rain'
p6
aF5.0
aa(lp7
S'Someone is drawing'
p8
aS'Someone is dancing'
p9
aF0.0
aa(lp10
S'A man and a woman are kissing each other'
p11
aS'A man and a woman are talking to each other'
p12
aF1.0
aa(lp13
S'A woman is slicing an onion'
p14
aS'A woman is cutting an onion'
p15
aF4.0
aa(lp16
S'A person is peeling shrimp'
p17
aS'A person is preparing shrimp'
p18
aF4.0
aa(lp19
S'A woman is cutting broccoli'
p20
aS'A woman is slicing broccoli'
p21
aF5.0
aa(lp22
S'A man is playing a guitar'
p23
aS'A woman is playing the guitar'
p24
aF3.0
aa(lp25
S'Two men are fistfighting in a ring'
p26
aS'Two men fistfight in a ring'
p27
aF5.0
aa(lp28
S'A small boy is playing with a dog'
p29
aS'A baby is playing with a dog'
p30
aF4.0
aa(lp31
S'The man is drawing'
p32
aS'A man is drawing'
p33
aF5.0
aa(lp34
S'A man is cutting a potato'
p35
aS'A woman is cutting a tomato'
p36
aF1.0
aa(lp37
S'A small dog laying on the bed'
p38
aS'A small dog is laying on a bed'
p39
aF5.0
aa(lp40
S'A person wipes butter on a tray'
p41
aS'A person is buttering a tray'
p42
aF4.0
aa(lp43
S'Two men are playing football'
p44
aS'Two men are practicing football'
p45
aF3.0
aa(lp46
S'The man is playing the guitar'
p47
aS'The girl is playing the guitar'
p48
aF2.0
aa(lp49
S'The man is slicing a potato'
p50
aS'A man is slicing potato'
p51
aF5.0
aa(lp52
S'A boy is playing a guitar'
p53
aS'A kid is playing a guitar'
p54
aF4.0
aa(lp55
S'The man is slicing a potato'
p56
aS'A man is slicing potato'
p57
aF5.0
aa(lp58
S'A man is peeling a potato'
p59
aS'A man is slicing a potato'
p60
aF3.0
aa(lp61
S'A woman is stabbing a potato with a fork'
p62
aS'A woman is puncturing a potato with a fork'
p63
aF5.0
aa(lp64
S'A child is waking up'
p65
aS'A girl is waking up'
p66
aF3.0
aa(lp67
S'A boy is playing a key-board'
p68
aS'A little boy is playing a keyboard'
p69
aF5.0
aa(lp70
S'A woman is cutting an onion'
p71
aS'A woman is cutting through an onion'
p72
aF5.0
aa(lp73
S'A toy train is striking a toy car'
p74
aS'A toy train strikes a toy car'
p75
aF5.0
aa(lp76
S'A man is playing the guitar'
p77
aS'A man is playing the flute'
p78
aF2.0
aa(lp79
S'A cat opens a drawer and climbs inside'
p80
aS'A cat is opening a drawer and climbing inside'
p81
aF5.0
aa(lp82
S'A woman is frying a food'
p83
aS'A woman is deep frying food'
p84
aF4.0
aa(lp85
S'A woman plays the flute'
p86
aS'A woman is playing the flute'
p87
aF5.0
aa(lp88
S'A man is dicing an onion'
p89
aS'A woman is cutting an onion'
p90
aF3.0
aa(lp91
S'A girl is playing a guitar'
p92
aS'A man is playing a guitar'
p93
aF3.0
aa(lp94
S'A girl is singing on stage'
p95
aS'A man is singing on stage'
p96
aF3.0
aa(lp97
S'A woman is riding a horse'
p98
aS'A woman is riding a donkey'
p99
aF3.0
aa(lp100
S'A girl is playing a guitar'
p101
aS'A man is playing a guitar'
p102
aF3.0
aa(lp103
S'A woman is brushing some shrimp'
p104
aS'A woman brushes some shrimp'
p105
aF5.0
aa(lp106
S'A man is dancing on the ceiling'
p107
aS'A man is dancing on the ceiling of a room'
p108
aF5.0
aa(lp109
S'A woman is playing an electric guitar'
p110
aS'A man is playing an acoustic guitar'
p111
aF2.0
aa(lp112
S'A woman thinly slices an onion with a large knife'
p113
aS'A woman is slicing onions with a large knife'
p114
aF4.0
aa(lp115
S'A man is playing a keyboard'
p116
aS'A man plays a keyboard'
p117
aF5.0
aa(lp118
S'A man plays the guitar'
p119
aS'A man is playing the guitar'
p120
aF5.0
aa(lp121
S'A woman is peeling a potato'
p122
aS'A woman peels a potato'
p123
aF5.0
aa(lp124
S'A woman is handling a frog'
p125
aS'A man is holding a frog'
p126
aF4.0
aa(lp127
S'A person is peeling shrimp'
p128
aS'A man is peeling shrimp'
p129
aF4.0
aa(lp130
S'A man is playing a flute'
p131
aS'A man is playing a guitar'
p132
aF2.0
aa(lp133
S'A man is playing a flute'
p134
aS'A man is playing a guitar'
p135
aF2.0
aa(lp136
S'A man is playing a guitar'
p137
aS'A man is playing a flute'
p138
aF2.0
aa(lp139
S'A man is playing a piano'
p140
aS'A man is playing a guitar'
p141
aF2.0
aa(lp142
S'A man is playing a guitar'
p143
aS'A man is playing a piano'
p144
aF2.0
aa(lp145
S'A man is playing a flute'
p146
aS'A man is playing a guitar'
p147
aF2.0
aa(lp148
S'A man is playing a flute'
p149
aS'A man is playing a guitar'
p150
aF2.0
aa(lp151
S'Two women are on a couch'
p152
aS'Two women are hugging on a couch'
p153
aF3.0
aa(lp154
S'Someone is slicing a cucumber'
p155
aS'A man is slicing a cucumber'
p156
aF4.0
aa(lp157
S'A kitten is playing with a blue rope toy'
p158
aS'A kitten is playing with a toy'
p159
aF4.0
aa(lp160
S'A group of people are sweeping water out of a house'
p161
aS'People are sweeping water out of a house'
p162
aF5.0
aa(lp163
S'The dog is barking at the toy'
p164
aS'A dog is barking at a toy'
p165
aF5.0
aa(lp166
S'A person folds a tortilla'
p167
aS'A man folds a tortilla'
p168
aF4.0
aa(lp169
S'A cat is drinking milk'
p170
aS'A kitten is drinking milk'
p171
aF4.0
aa(lp172
S'A person is driving a car'
p173
aS'A man is driving a car'
p174
aF4.0
aa(lp175
S'A turtle is walking'
p176
aS'A tortoise is walking'
p177
aF4.0
aa(lp178
S'A cow is eating grass'
p179
aS'A cow is eating hay'
p180
aF4.0
aa(lp181
S'A woman is chopping broccoli'
p182
aS'A woman is chopping garlic'
p183
aF3.0
aa(lp184
S'A man is crying'
p185
aS'A man is screaming'
p186
aF3.0
aa(lp187
S'A woman is putting on sun glasses'
p188
aS'A woman puts on sunglasses'
p189
aF5.0
aa(lp190
S'The man is playing the guitar'
p191
aS'A man is playing guitar'
p192
aF5.0
aa(lp193
S'A man is cutting an onion'
p194
aS'A man is cutting a plantain'
p195
aF4.0
aa(lp196
S'A man is slicing a potato'
p197
aS'A woman is peeling a potato'
p198
aF2.0
aa(lp199
S'A woman is slicing a potato'
p200
aS'A woman is slicing carrot'
p201
aF3.0
aa(lp202
S'A man plays a guitar'
p203
aS'A man is playing a guitar'
p204
aF5.0
aa(lp205
S'Women are running'
p206
aS'Two women are running'
p207
aF4.0
aa(lp208
S'A woman is tapping her fingers on a table'
p209
aS'A woman is tapping her fingers'
p210
aF4.0
aa(lp211
S'Someone is boiling okra in a pot'
p212
aS'Someone is cooking okra in a pan'
p213
aF4.0
aa(lp214
S'A man is smoking'
p215
aS'A man is mixing'
p216
aF0.0
aa(lp217
S'The man is playing the drums'
p218
aS'A man is playing drums'
p219
aF5.0
aa(lp220
S'A man dives into a pool'
p221
aS'A man is diving into a pool'
p222
aF5.0
aa(lp223
S'A woman is cutting a leak'
p224
aS'A woman is slicing a leek'
p225
aF4.0
aa(lp226
S'A man is playing a harp'
p227
aS'A woman is playing a guitar'
p228
aF2.0
aa(lp229
S'A man dives into a pool'
p230
aS'A man dives into a swimming pool'
p231
aF5.0
aa(lp232
S'A little boy is playing a guitar'
p233
aS'A boy is playing guitar'
p234
aF5.0
aa(lp235
S'The man is smashing garlic'
p236
aS'A man is smashing some garlic'
p237
aF5.0
aa(lp238
S'A man is cutting up a potato'
p239
aS'A man is cutting up carrots'
p240
aF2.0
aa(lp241
S'A woman is dancing'
p242
aS'The man is dancing'
p243
aF3.0
aa(lp244
S'Women are talking'
p245
aS'The men are talking'
p246
aF3.0
aa(lp247
S'A girl is putting gel in her hair'
p248
aS'A woman is putting gel on her hair'
p249
aF3.0
aa(lp250
S'A kid is playing guitar'
p251
aS'A man is playing a guitar'
p252
aF2.0
aa(lp253
S'A group of people are marching in place'
p254
aS'A group of people are dancing in concert'
p255
aF2.0
aa(lp256
S'A man and a woman is kissing each other'
p257
aS'A man and a woman are hugging and kissing each other'
p258
aF3.0
aa(lp259
S'The woman is shooting a machine gun'
p260
aS'The man is shooting a gun'
p261
aF2.0
aa(lp262
S'A man played the piano'
p263
aS'A man plays a piano'
p264
aF4.0
aa(lp265
S'A woman is slicing an onion'
p266
aS'Someone is slicing a onion'
p267
aF3.0
aa(lp268
S'A man is slicing a cucumber'
p269
aS'A man is cutting cucumbers'
p270
aF5.0
aa(lp271
S'A girl is eating a cupcake'
p272
aS'A woman is eating a cupcake'
p273
aF3.0
aa(lp274
S'A woman is cutting an onion'
p275
aS'A man is chopping an onion'
p276
aF2.0
aa(lp277
S'The man is playing a guitar'
p278
aS'A baby is playing a guitar'
p279
aF2.0
aa(lp280
S'A man is playing the guitar'
p281
aS'A man is playing the drums'
p282
aF2.0
aa(lp283
S'Two little girls talk on the telephone'
p284
aS'Two girls talk on the phone'
p285
aF5.0
aa(lp286
S'A man is chopping a log with an axe'
p287
aS'A man is chopping a tree trunk with an axe'
p288
aF4.0
aa(lp289
S'A woman is climbing a cliff'
p290
aS'A woman is climbing a rock face'
p291
aF5.0
aa(lp292
S'A man is slicing an onion'
p293
aS'A man slices an onion'
p294
aF5.0
aa(lp295
S'A polar bear is running towards a group of walruses'
p296
aS'A polar bear is chasing a group of walruses'
p297
aF4.0
aa(lp298
S'A person is cutting a capsicum into pieces'
p299
aS'A person is slicing a garlic into pieces'
p300
aF2.0
aa(lp301
S'A man is talking with a woman'
p302
aS'A woman is walking with a dog'
p303
aF1.0
aa(lp304
S'The man is walking'
p305
aS'A man is talking'
p306
aF1.0
aa(lp307
S'Someone is pouring oil into a skillet'
p308
aS'Someone is pouring milk into a blender'
p309
aF2.0
aa(lp310
S'A small kitten is playing a ball'
p311
aS'A kitten is playing with a ball'
p312
aF4.0
aa(lp313
S'A man is playing a guitar'
p314
aS'A woman is playing a flute'
p315
aF2.0
aa(lp316
S'A woman is cutting some fish'
p317
aS'A woman is cutting tofu'
p318
aF2.0
aa(lp319
S'A girl is playing a violin'
p320
aS'A girl is playing a flute'
p321
aF3.0
aa(lp322
S'Someone is playing a piano'
p323
aS'Someone is playing guitar'
p324
aF2.0
aa(lp325
S'A man is playing two pianos'
p326
aS'A cat is playing a piano'
p327
aF2.0
aa(lp328
S'A man is exercising'
p329
aS'A girl is exercising'
p330
aF3.0
aa(lp331
S'A person is slicing a scallop'
p332
aS'A person is slicing octopus'
p333
aF2.0
aa(lp334
S'A man and a woman are riding on their bicycles'
p335
aS'A man and woman are riding a motorcycle'
p336
aF2.0
aa(lp337
S'A man is pouring rice a roni into a pan'
p338
aS'A man poured ric-a-roni into a pan'
p339
aF4.0
aa(lp340
S'Two men are fighting in a cow pasture'
p341
aS'Two men are fighting in a cattle pen'
p342
aF4.0
aa(lp343
S'A woman is adding oil to a pan'
p344
aS'A man is pouring oil into a pan'
p345
aF3.0
aa(lp346
S'A girl makes up her bed'
p347
aS'A young girl makes her bed'
p348
aF4.0
aa(lp349
S'The cat played with a watermelon'
p350
aS'A cat is playing with a watermelon'
p351
aF5.0
aa(lp352
S'A girl jumps on a car'
p353
aS'A girl is jumping onto a car'
p354
aF5.0
aa(lp355
S'A man is breaking wooden boards with his hand'
p356
aS'A man is breaking tiles with his hands'
p357
aF3.0
aa(lp358
S'A girl is playing guitar'
p359
aS'A girl is playing a piano'
p360
aF2.0
aa(lp361
S'A man is praying'
p362
aS'A man is dancing'
p363
aF1.0
aa(lp364
S'A man is praying'
p365
aS'A man is running'
p366
aF1.0
aa(lp367
S'A car is parking'
p368
aS'A cat is playing'
p369
aF0.0
aa(lp370
S'A man is running'
p371
aS'A man is dancing'
p372
aF1.0
aa(lp373
S'A man is dancing'
p374
aS'A man is singing'
p375
aF1.0
aa(lp376
S'A man is running'
p377
aS'A man is singing'
p378
aF1.0
aa(lp379
S'A man is singing'
p380
aS'A man is dancing'
p381
aF1.0
aa(lp382
S'A man is carrying another man over his shoulder'
p383
aS'A man is carrying someone on his shoulder'
p384
aF3.0
aa(lp385
S'A woman is peeling a potato'
p386
aS'A woman is slicing a tomato'
p387
aF1.0
aa(lp388
S'A woman is cutting a tomato'
p389
aS'A woman is slicing a potato'
p390
aF1.0
aa(lp391
S'Someone is peeling a potato'
p392
aS'Someone is slicing a tomato'
p393
aF1.0
aa(lp394
S'A woman is peeling a potato'
p395
aS'A woman is slicing a tomato'
p396
aF1.0
aa(lp397
S'Two robots kiss'
p398
aS'Two robots are kissing'
p399
aF5.0
aa(lp400
S'Two boys on a couch are playing video games'
p401
aS'Two boys are playing a video game'
p402
aF4.0
aa(lp403
S'The man is hiking in the woods'
p404
aS'A man is tracking in the wood'
p405
aF3.0
aa(lp406
S'A woman is squeezing a lemon'
p407
aS'A woman is squeezing juice out of a lemon'
p408
aF4.0
aa(lp409
S'A man is playing piano'
p410
aS'A man is playing a violin'
p411
aF2.0
aa(lp412
S'A man is playing a flute'
p413
aS'A man is playing guitar'
p414
aF2.0
aa(lp415
S'A man is riding a bike'
p416
aS'A woman is riding a horse'
p417
aF1.0
aa(lp418
S'A woman is slicing an onion'
p419
aS'A man is slicing a tomato'
p420
aF1.0
aa(lp421
S'A woman is slicing a carrot'
p422
aS'A man is slicing a tomato'
p423
aF1.0
aa(lp424
S'A woman is slicing an onion'
p425
aS'A woman is slicing lemons'
p426
aF2.0
aa(lp427
S'A girl is styling her hair'
p428
aS'A girl is filing her nails'
p429
aF1.0
aa(lp430
S'A man walking down the stairs'
p431
aS'A man walks down a staircase'
p432
aF5.0
aa(lp433
S'A man is riding a horse by a creek'
p434
aS'A man is riding a horse'
p435
aF4.0
aa(lp436
S'A woman is playing the guitar'
p437
aS'A person is playing a guitar'
p438
aF4.0
aa(lp439
S'A man is playing a guitar'
p440
aS'A man is playing a guitar and singing'
p441
aF3.0
aa(lp442
S'Two people are riding a motorcycle'
p443
aS'Two people are riding a bike'
p444
aF2.0
aa(lp445
S'A man is playing a guitar'
p446
aS'A woman is playing an electric guitar'
p447
aF2.0
aa(lp448
S'A man is playing a guitar and singing'
p449
aS'A man is playing a guitar'
p450
aF3.0
aa(lp451
S'A man is walking in the rain'
p452
aS'A man and woman is walking in the grand'
p453
aF2.0
aa(lp454
S'A kangaroo is eating'
p455
aS'Kangaroo eating'
p456
aF5.0
aa(lp457
S'A man is fishing'
p458
aS'A man is exercising'
p459
aF1.0
aa(lp460
S'A woman is swimming'
p461
aS'A man is singing'
p462
aF0.0
aa(lp463
S'A Woman is eating'
p464
aS'A animal is eating'
p465
aF2.0
aa(lp466
S'A boy and a girl is dancing in the rain'
p467
aS'A man and woman is dancing in the rain'
p468
aF3.0
aa(lp469
S'A man is driving a car'
p470
aS'A man drives a car'
p471
aF5.0
aa(lp472
S'A woman is grating onion'
p473
aS'A woman grates onions'
p474
aF5.0
aa(lp475
S'Two roosters are fighting'
p476
aS'Two men are fighting'
p477
aF2.0
aa(lp478
S'A man is riding a horse'
p479
aS'A man is driving a car'
p480
aF1.0
aa(lp481
S'A man is riding a horse'
p482
aS'A man is driving a car'
p483
aF1.0
aa(lp484
S'A man is eating a pizza'
p485
aS'A man is eating a food'
p486
aF4.0
aa(lp487
S'A man is shooting a gun'
p488
aS'A man is slicing a bun'
p489
aF1.0
aa(lp490
S'A man is picking up a tree'
p491
aS'A man is carrying a tree'
p492
aF4.0
aa(lp493
S'A woman is cutting an onion'
p494
aS'A woman is cutting meat'
p495
aF2.0
aa(lp496
S'The woman is slicing herbs'
p497
aS'The man is slicing bread'
p498
aF2.0
aa(lp499
S'A boy is playing the piano'
p500
aS'A man is playing a piano'
p501
aF3.0
aa(lp502
S'A baby elephant is eating'
p503
aS'A baby elephant eats a sapling'
p504
aF4.0
aa(lp505
S'A person is peeling a potato'
p506
aS'The man is peeling a potato'
p507
aF4.0
aa(lp508
S'A person is playing a piano'
p509
aS'A person is slicing a potato'
p510
aF1.0
aa(lp511
S'A woman is cracking eggs into a bowl'
p512
aS'A woman is cracking eggs'
p513
aF4.0
aa(lp514
S'A person is playing the keyboard'
p515
aS'A boy is playing a key-board'
p516
aF4.0
aa(lp517
S'A boy whacks a man with a sword'
p518
aS'A boy spanks a man with a plastic sword'
p519
aF3.0
aa(lp520
S'A person is slicing a carrot into pieces'
p521
aS'A person is cutting an onion into pieces'
p522
aF2.0
aa(lp523
S'A man sliced through a bunch of water bottles with a knife'
p524
aS'A man is slicing a line of water bottles with a knife'
p525
aF4.0
aa(lp526
S'A man is playing guitar'
p527
aS'A man plays a guitar'
p528
aF5.0
aa(lp529
S'A man is writing in a book'
p530
aS'A man is writing on a paper'
p531
aF3.0
aa(lp532
S'A man is spitting'
p533
aS'A man is talking'
p534
aF1.0
aa(lp535
S'A man is playing a musical keyboard'
p536
aS'A man is playing a keyboard piano'
p537
aF5.0
aa(lp538
S'A woman is slicing a garlic'
p539
aS'A woman is slicing a big pepper'
p540
aF2.0
aa(lp541
S'A person is making a bed'
p542
aS'A person is eating at a table'
p543
aF0.0
aa(lp544
S'The man is buttering the bread'
p545
aS'The man is stirring the rice'
p546
aF0.0
aa(lp547
S'A woman is hitting a man'
p548
aS'A woman is taking a bath'
p549
aF0.0
aa(lp550
S'A man is playing keyboard'
p551
aS'A man is playing guitar'
p552
aF2.0
aa(lp553
S'A man is playing a violin'
p554
aS'A man is playing a harp'
p555
aF2.0
aa(lp556
S'Three men are dancing'
p557
aS'Women are dancing'
p558
aF1.0
aa(lp559
S'A man is speaking'
p560
aS'A man is dancing'
p561
aF1.0
aa(lp562
S'A man is dancing'
p563
aS'A man is speaking'
p564
aF1.0
aa(lp565
S'The woman is smoking'
p566
aS'The man is walking'
p567
aF0.0
aa(lp568
S'A man is dancing'
p569
aS'A man is thinking'
p570
aF1.0
aa(lp571
S'The man erased what the other man had on the board'
p572
aS'The man erased the work on the board'
p573
aF3.0
aa(lp574
S'A man is riding a motorcycle'
p575
aS'A man is riding a motorcycle through a town'
p576
aF4.0
aa(lp577
S'A man is riding a motorcycle on the highway'
p578
aS'A man is riding a motorcycle'
p579
aF4.0
aa(lp580
S'A woman is slicing up some meat'
p581
aS'A woman is slicing some onions'
p582
aF2.0
aa(lp583
S'A person is combing a cat hair'
p584
aS'A person is brushing a cat'
p585
aF4.0
aa(lp586
S'A woman cuts up broccoli'
p587
aS'A woman is cutting broccoli'
p588
aF5.0
aa(lp589
S'A man is playing a piano'
p590
aS'A woman is peeling a potato'
p591
aF0.0
aa(lp592
S'Someone is slicing a tomato'
p593
aS'Someone is slicing fruit'
p594
aF3.0
aa(lp595
S'A woman is dancing in a cage'
p596
aS'A woman is dancing'
p597
aF3.0
aa(lp598
S'A woman is swimming'
p599
aS'A man is spitting'
p600
aF0.0
aa(lp601
S'A man is running'
p602
aS'A man is mooing'
p603
aF1.0
aa(lp604
S'The man is playing the guitar'
p605
aS'The man played his guitar'
p606
aF4.0
aa(lp607
S'A cat stares into the camera'
p608
aS'A cat addresses the camera'
p609
aF3.0
aa(lp610
S'The baby is laughing and crawling'
p611
aS'A baby is laughing and crawling on the floor'
p612
aF4.0
aa(lp613
S'A man plays a trumpet'
p614
aS'A man is playing the trumpet'
p615
aF5.0
aa(lp616
S'A woman is shooting a gun'
p617
aS'A woman shoots a shotgun'
p618
aF4.0
aa(lp619
S'A man is playing the drums'
p620
aS'A man is playing guitar'
p621
aF2.0
aa(lp622
S'A woman is dancing in the rain'
p623
aS'A woman is dancing in railway station'
p624
aF2.0
aa(lp625
S'A woman is riding a horse'
p626
aS'A man rides a horse'
p627
aF3.0
aa(lp628
S'A woman is dancing'
p629
aS'A woman is exercising'
p630
aF1.0
aa(lp631
S'A kid is playing an instrument'
p632
aS'A young boy is playing a wind instrument'
p633
aF4.0
aa(lp634
S'Someone slices a bottle with a sword'
p635
aS'A man breaks a bottle with a sword'
p636
aF4.0
aa(lp637
S'A man is peeling a banana'
p638
aS'A woman is peeling a potato'
p639
aF1.0
aa(lp640
S'A woman is cutting an apple'
p641
aS'A woman is cutting potato'
p642
aF2.0
aa(lp643
S'The man is peeling an apple'
p644
aS'A man peels an apple'
p645
aF5.0
aa(lp646
S'A boy is riding a horse'
p647
aS'A monkey is riding a bus'
p648
aF0.0
aa(lp649
S'The puppy tried to get out of the tub'
p650
aS'A puppy is trying to get out of a bathtub'
p651
aF4.0
aa(lp652
S'The man is playing the guitar'
p653
aS'The man is playing with a skull'
p654
aF1.0
aa(lp655
S'An animal is walking on the ground'
p656
aS'A solenodon is walking along the ground'
p657
aF3.0
aa(lp658
S'A band is playing on stage'
p659
aS'A woman is dancing on a stage'
p660
aF1.0
aa(lp661
S'A woman is playing a guitar and singing'
p662
aS'A woman is playing the guitar'
p663
aF3.0
aa(lp664
S'A little girl is playing a grand piano on stage'
p665
aS'A little girl is playing the piano'
p666
aF3.0
aa(lp667
S'The man is eating'
p668
aS'A man is eating food'
p669
aF5.0
aa(lp670
S'a group of people dancing'
p671
aS'A group of men are dancing'
p672
aF3.0
aa(lp673
S'A man plays a guitar'
p674
aS'A woman is playing guitar'
p675
aF2.0
aa(lp676
S'A little boy hits a golf ball'
p677
aS'The little boy swung at the golf ball'
p678
aF4.0
aa(lp679
S'A cat swings on a ceiling fan'
p680
aS'A cat is spun around by a ceiling fan'
p681
aF4.0
aa(lp682
S'A guy is taking off his sunglasses'
p683
aS'A boy is removing his sunglasses'
p684
aF4.0
aa(lp685
S'Someone is reading an email'
p686
aS'A man is reading his email'
p687
aF3.0
aa(lp688
S'A woman is playing the flute'
p689
aS'A girl is playing a flute'
p690
aF4.0
aa(lp691
S'The woman is dicing onions'
p692
aS'A woman is cutting an onion'
p693
aF4.0
aa(lp694
S'A monkey is brushing a bull dog'
p695
aS'A monkey brushes a dog'
p696
aF4.0
aa(lp697
S'A person is slicing onions'
p698
aS'Someone is slicing an onion'
p699
aF5.0
aa(lp700
S'A woman is slicing a onion'
p701
aS'A woman is cutting a potato'
p702
aF1.0
aa(lp703
S'A man is playing the piano'
p704
aS'A woman is playing a guitar'
p705
aF1.0
aa(lp706
S'A woman is washing her hands'
p707
aS'A woman is straightening her hair'
p708
aF1.0
aa(lp709
S'A woman fires a shotgun'
p710
aS'A woman is shooting a gun'
p711
aF3.0
aa(lp712
S'A man is eating a bowl of cereal'
p713
aS'The man is eating cereal'
p714
aF4.0
aa(lp715
S'A girl is coming up on a car'
p716
aS'A girl jumps on top of a car'
p717
aF3.0
aa(lp718
S'A woman is bathing into bath-tub'
p719
aS'A woman is taking a bath'
p720
aF4.0
aa(lp721
S'A motorcyclist crashes on his motorcycle'
p722
aS'A person crashes on a motorcycle'
p723
aF4.0
aa(lp724
S'A man is dangling a mouse near a snake'
p725
aS'A man is feeding a mice to a snake'
p726
aF3.0
aa(lp727
S'A man and a woman are walking in the woods'
p728
aS'A man and woman are walking through the jungle'
p729
aF3.0
aa(lp730
S'A person pours some rice pudding into a bowl'
p731
aS'The lady poured the rice pudding into a bowl'
p732
aF4.0
aa(lp733
S'A man stares out a window'
p734
aS'A man looks out the window'
p735
aF5.0
aa(lp736
S'A woman is firing a rifle'
p737
aS'A woman is cutting a lemon'
p738
aF0.0
aa(lp739
S'A man is eating a banana'
p740
aS'Someone is peeling a banana'
p741
aF2.0
aa(lp742
S'The men are performing on stage'
p743
aS'The comedic mimes performed on stage'
p744
aF3.0
aa(lp745
S'A cartoon woman dives into a pool'
p746
aS'A cartoon woman is diving off a board'
p747
aF3.0
aa(lp748
S'The lady put the baby int a trashcan'
p749
aS'A woman puts a baby in a trash can'
p750
aF5.0
aa(lp751
S'Someone is frying meat'
p752
aS'Someone is playing paino'
p753
aF0.0
aa(lp754
S'A man is rapidly chopping some mushrooms using a knife'
p755
aS'A person is quickly chopping mushrooms with a knife'
p756
aF4.0
aa(lp757
S'A woman is adding ingredients to a bowl'
p758
aS'A woman is cracking three eggs into a bowl'
p759
aF2.0
aa(lp760
S'A skateboarder does tricks on a half-pipe'
p761
aS'A man skateboards on a half pipe'
p762
aF4.0
aa(lp763
S'A man is speaking on a stage'
p764
aS'A man is speaking at a podium'
p765
aF3.0
aa(lp766
S'A man is playing a guitar'
p767
aS'A man in a hat is playing a harp'
p768
aF1.0
aa(lp769
S'A man is playing on his keyboard'
p770
aS'A man is playing a guitar'
p771
aF1.0
aa(lp772
S'A person is cutting a potato'
p773
aS'A person is slicing a shallot'
p774
aF1.0
aa(lp775
S'A man is playing drums'
p776
aS'A man is playing his guitar'
p777
aF2.0
aa(lp778
S'A man is dancing on the ceiling of a room'
p779
aS'A man is dancing upside-down on the ceiling'
p780
aF5.0
aa(lp781
S'Two men are dancing'
p782
aS'Two women are shopping'
p783
aF0.0
aa(lp784
S'Someone is seasoning eggs'
p785
aS'Someone is seasoning two raw eggs in a bowl'
p786
aF4.0
aa(lp787
S'A woman is peeling an onion'
p788
aS'The woman is slicing green onions'
p789
aF3.0
aa(lp790
S'A person is mixing a pot of rice'
p791
aS'A person is peeling a potato'
p792
aF1.0
aa(lp793
S'A man is swinging in a rope'
p794
aS'A gibbon is swinging in the trees'
p795
aF1.0
aa(lp796
S'Someone is slicing a onion'
p797
aS'Someone is carrying a fish'
p798
aF1.0
aa(lp799
S'A man is cutting tomatoes'
p800
aS'A woman is cutting broccoli'
p801
aF2.0
aa(lp802
S'A woman is boiling shrimp'
p803
aS'A woman is combing her hair'
p804
aF1.0
aa(lp805
S'A man cuts a potato'
p806
aS'A man is slicing a potato'
p807
aF4.0
aa(lp808
S'A man is dancing on the road'
p809
aS'A man is dancing'
p810
aF3.0
aa(lp811
S'The deer jumped over the fence'
p812
aS'A deer jumps over a cyclone fence'
p813
aF4.0
aa(lp814
S'A girl dances in the rain'
p815
aS'A woman is dancing in the rain'
p816
aF3.0
aa(lp817
S'A woman is writing a letter'
p818
aS'A woman is sitting at a desk'
p819
aF2.0
aa(lp820
S'A gorilla is playing the drums'
p821
aS'A monkey is playing drums'
p822
aF3.0
aa(lp823
S'A man is playing a guitar'
p824
aS'The girl is playing the guitar'
p825
aF2.0
aa(lp826
S'A woman is riding on a horse'
p827
aS'A woman is picking tomatoes'
p828
aF1.0
aa(lp829
S'A lion cub tries to climb a fence'
p830
aS'A lion tries to climb over a wall'
p831
aF3.0
aa(lp832
S'A man is talking on a cell phone'
p833
aS'A guy is talking into a microphone'
p834
aF2.0
aa(lp835
S'A man is playing a guitar'
p836
aS'A man is cleaning a cd'
p837
aF1.0
aa(lp838
S'The boy cut the grass by the curb with scissors'
p839
aS'A boy cuts grass with scissors'
p840
aF4.0
aa(lp841
S'A woman is dicing some peeled potatoes cut into thick strips'
p842
aS'A woman is chopping a peeled potato into slices'
p843
aF4.0
aa(lp844
S'A man with glasses is talking'
p845
aS'A man in a library is talking'
p846
aF3.0
aa(lp847
S'A little girl peddling a scooter'
p848
aS'A girl is riding a scooter'
p849
aF3.0
aa(lp850
S'A woman is cutting some flowers'
p851
aS'A woman is cutting broccoli'
p852
aF1.0
aa(lp853
S'A person is walking down a stone path'
p854
aS'A man is walking down a sidewalk'
p855
aF4.0
aa(lp856
S'Someone is pouring chicken broth into a pot'
p857
aS'The man is pouring broth into the pot'
p858
aF4.0
aa(lp859
S'A man plays the keyboard with his nose'
p860
aS'The man is playing the piano with his nose'
p861
aF4.0
aa(lp862
S'A man is playing guitar'
p863
aS'A cat is playing'
p864
aF0.0
aa(lp865
S'A animal is eating'
p866
aS'The animal is hopping'
p867
aF0.0
aa(lp868
S'A man is lifting weights'
p869
aS'A man is lifting a barbell'
p870
aF4.0
aa(lp871
S'A man is running with a bus'
p872
aS'A man runs with a truck'
p873
aF3.0
aa(lp874
S'A man is climbing a rope'
p875
aS'A man is sitting on a rock'
p876
aF0.0
aa(lp877
S'A cat is playing the piano'
p878
aS'A cat is licking its paw'
p879
aF0.0
aa(lp880
S'A woman is dancing in the rain'
p881
aS'A woman is adding oil to a dish'
p882
aF0.0
aa(lp883
S'A cat cleans itself'
p884
aS'A cat is licking itself'
p885
aF4.0
aa(lp886
S'A man is kicking a soccer ball'
p887
aS'A man is performing tricks with a soccer ball'
p888
aF3.0
aa(lp889
S'Men are running a race'
p890
aS'Racers are running down a track'
p891
aF3.0
aa(lp892
S'A woman opens a window'
p893
aS'A woman is looking out a window'
p894
aF2.0
aa(lp895
S'A man is cutting tomatoes into pieces'
p896
aS'A woman is cutting potatoes'
p897
aF2.0
aa(lp898
S'A man is playing a flute'
p899
aS'A woman is applying eye liner'
p900
aF0.0
aa(lp901
S'A woman is cutting potatoes'
p902
aS'A woman is slicing carrots'
p903
aF1.0
aa(lp904
S'Three men are doing same dance in the street'
p905
aS'Three shirtless men are dancing in the street'
p906
aF4.0
aa(lp907
S'A chicken is pecking at a dead mouse'
p908
aS'A rooster pecks at a dead mouse'
p909
aF4.0
aa(lp910
S'A woman is chopping an onion'
p911
aS'A woman is chopping garlic with a knife'
p912
aF2.0
aa(lp913
S'The woman is thinly slicing a cucumber'
p914
aS'The woman is slicing a tomato'
p915
aF1.0
aa(lp916
S'A person is slicing a bread pieces'
p917
aS'A man is slicing bread'
p918
aF3.0
aa(lp919
S'A woman is cutting a squash'
p920
aS'A woman is cutting big pepper'
p921
aF2.0
aa(lp922
S'A woman is adding oil on fishes'
p923
aS'A woman is riding a horse'
p924
aF1.0
aa(lp925
S'A woman is grating carrots'
p926
aS'A woman is coating a pork chop'
p927
aF2.0
aa(lp928
S'Someone is cleaning a animal'
p929
aS'A woman is cleaning a shrimp'
p930
aF3.0
aa(lp931
S'The man is playing the guitar'
p932
aS'The man is peeling a potato'
p933
aF1.0
aa(lp934
S'A man is talking on the phone'
p935
aS'A man is talking'
p936
aF3.0
aa(lp937
S'A woman is smoking'
p938
aS'A woman is making some food'
p939
aF1.0
aa(lp940
S'A man laying down and shooting a gun'
p941
aS'A man is laying on the ground shooting a rifle'
p942
aF4.0
aa(lp943
S'A man is being put into an abulance'
p944
aS'A man is pouring pasta onto a plate'
p945
aF0.0
aa(lp946
S'A man is diving into a swimming pool'
p947
aS'A man is singing into a microphone'
p948
aF1.0
aa(lp949
S'A man is firing a shot gun'
p950
aS'A man shoots a shotgun'
p951
aF5.0
aa(lp952
S'The man is shaking hands with other men'
p953
aS'A man is shaking another mans hand'
p954
aF4.0
aa(lp955
S'A target is being hit with gun fire'
p956
aS'The target was being shot with bullets'
p957
aF4.0
aa(lp958
S'A man playing the guitar'
p959
aS'A man is playing a flute'
p960
aF2.0
aa(lp961
S'A man is peeling potato'
p962
aS'A man is playing a guitar'
p963
aF0.0
aa(lp964
S'The woman is riding a horse'
p965
aS'A man is riding a horse in an arena'
p966
aF2.0
aa(lp967
S'An airplane moves along a runway'
p968
aS'A plane is landing on a runway'
p969
aF3.0
aa(lp970
S'A woman is slipping in the water-tub'
p971
aS'A woman is lying in a raft'
p972
aF1.0
aa(lp973
S'A man is mowing a lawn'
p974
aS'A man is mixing'
p975
aF1.0
aa(lp976
S'A man is dancing'
p977
aS'A woman is exercising'
p978
aF0.0
aa(lp979
S'A woman is exercising'
p980
aS'A man is dancing'
p981
aF0.0
aa(lp982
S'A woman is peeling a potato'
p983
aS'A woman is hitting a man'
p984
aF1.0
aa(lp985
S'A man is playing piano'
p986
aS'A man is laying on the ground'
p987
aF1.0
aa(lp988
S'A woman is doing ballet'
p989
aS'A woman is riding on a horse'
p990
aF1.0
aa(lp991
S'A woman is applying makeup'
p992
aS'A man is playing a guitar'
p993
aF0.0
aa(lp994
S'A woman is cutting an onion'
p995
aS'A woman is rowing a boat'
p996
aF1.0
aa(lp997
S'A woman is slicing a big pepper'
p998
aS'A person is cutting a green pepper'
p999
aF3.0
aa(lp1000
S'A woman is stirring rice in a pot'
p1001
aS'Someone is putting rice in a pan'
p1002
aF3.0
aa(lp1003
S'A boy is playing the violin onstage'
p1004
aS'A boy is playing an instrument'
p1005
aF3.0
aa(lp1006
S'The woman is measuring the other woman'
p1007
aS"The lady measured the other woman's ankle"
p1008
aF3.0
aa(lp1009
S'A man puts some cheese on a pizza'
p1010
aS'A man is sprinkling shredded cheese on a pizza'
p1011
aF4.0
aa(lp1012
S'A woman puts slabs of meat in a pan'
p1013
aS'A man puts pieces of meat into a plastic bag'
p1014
aF2.0
aa(lp1015
S'The boy played his trumpet'
p1016
aS'A boy is playing the trumpet'
p1017
aF4.0
aa(lp1018
S'A person is riding a horse'
p1019
aS'A man is riding a motorcycle'
p1020
aF2.0
aa(lp1021
S'A man is staring at a leaf'
p1022
aS'A man is slicing a vegetable'
p1023
aF1.0
aa(lp1024
S'A woman is slicing an onion'
p1025
aS'A woman is cutting a carrot'
p1026
aF1.0
aa(lp1027
S'A man is slicing vegetables'
p1028
aS'A woman is slicing a potato'
p1029
aF2.0
aa(lp1030
S'A cat is playing'
p1031
aS'A woman is playing flute'
p1032
aF0.0
aa(lp1033
S'A man is riding a bicycle'
p1034
aS'A man is riding a bicycle around a parking lot'
p1035
aF3.0
aa(lp1036
S'A band is performing on a stage'
p1037
aS'A band is playing and singing on a stage'
p1038
aF5.0
aa(lp1039
S'A person is picking a komodo dragon and putting it in a box'
p1040
aS'A person is placing a baby komodo dragon into a container'
p1041
aF4.0
aa(lp1042
S'The woman is slicing fish cake'
p1043
aS'The woman is riding a horse'
p1044
aF1.0
aa(lp1045
S'A man is eating bread'
p1046
aS'A man is playing flute'
p1047
aF1.0
aa(lp1048
S'A woman is cooking shrimp'
p1049
aS'A woman is dancing'
p1050
aF1.0
aa(lp1051
S'A woman is dancing'
p1052
aS'A woman is slicing ginger'
p1053
aF0.0
aa(lp1054
S'A woman tosses a cat in the air and the cat hangs off a rod on the ceiling'
p1055
aS'A person throws a cat in the air and it grabs onto the ceiling'
p1056
aF4.0
aa(lp1057
S'A person drops a camera down an escelator'
p1058
aS'A man tosses a bag down an escalator'
p1059
aF3.0
aa(lp1060
S'A big turtle is walking'
p1061
aS'The tortoise is walking'
p1062
aF4.0
aa(lp1063
S'A man is doing exercise'
p1064
aS'A man is firing a rifle'
p1065
aF1.0
aa(lp1066
S'A man is burning a flag'
p1067
aS'A man is shooting a gun'
p1068
aF1.0
aa(lp1069
S'The man is pushing the van'
p1070
aS'The woman is singing'
p1071
aF0.0
aa(lp1072
S'A man is eating wood'
p1073
aS'A man is adding oil to car'
p1074
aF1.0
aa(lp1075
S'A dog is speaking to the camera'
p1076
aS'A dog is eating some water melon'
p1077
aF1.0
aa(lp1078
S'A man is putting two paper towels on a paper plate'
p1079
aS'A man is putting papers on a dish'
p1080
aF2.0
aa(lp1081
S'A man and woman are walking'
p1082
aS'A man and woman walking hold each other'
p1083
aF3.0
aa(lp1084
S'A man is cutting a rope with a sword'
p1085
aS'The man slced through a thick rope with a sword'
p1086
aF4.0
aa(lp1087
S'The man is singing and playing the guitar'
p1088
aS'A man is playing a guitar'
p1089
aF3.0
aa(lp1090
S'A dog is playing with a toy'
p1091
aS'A dog is eating a doll'
p1092
aF2.0
aa(lp1093
S'A man is cutting a paper'
p1094
aS'A person is tearing paper'
p1095
aF3.0
aa(lp1096
S'A man is playing a piano'
p1097
aS'A guy is peeling a potato'
p1098
aF0.0
aa(lp1099
S'A man is dancing'
p1100
aS'A rat is running'
p1101
aF0.0
aa(lp1102
S'Two boys are talking on the phone'
p1103
aS'A woman is talking on a telephone'
p1104
aF2.0
aa(lp1105
S'A man is playing guitar'
p1106
aS'A woman is peeling a tuber'
p1107
aF0.0
aa(lp1108
S'A woman is slicing an onion'
p1109
aS'A women slicing lemons'
p1110
aF1.0
aa(lp1111
S'A woman is riding a horse'
p1112
aS'A man is running on rope'
p1113
aF0.0
aa(lp1114
S'A man is playing soccer'
p1115
aS'A man is drawing some figures'
p1116
aF0.0
aa(lp1117
S'A woman is peeling an orange'
p1118
aS'A man is playing a flute'
p1119
aF0.0
aa(lp1120
S'A man is bowling'
p1121
aS'A kitten is walking'
p1122
aF0.0
aa(lp1123
S'Someone is cracking an egg open'
p1124
aS'A man is breaking an egg'
p1125
aF3.0
aa(lp1126
S'A man is cutting a snake to cook'
p1127
aS'A woman is cutting meat'
p1128
aF2.0
aa(lp1129
S'The man is playing the keyboards'
p1130
aS'A man is playing guitar'
p1131
aF2.0
aa(lp1132
S'A woman is applying eye shadow'
p1133
aS'A woman is washing a bowl'
p1134
aF1.0
aa(lp1135
S'A woman is scraping a carrot'
p1136
aS'A man is striking clay pots'
p1137
aF0.0
aa(lp1138
S'A woman is playing the flute'
p1139
aS'A man is playing a keyboard'
p1140
aF1.0
aa(lp1141
S'A man is riding on a horse'
p1142
aS'A woman is riding an elephant'
p1143
aF2.0
aa(lp1144
S'A man and woman are Bollywood dancing'
p1145
aS'A man an woman are dancing in the rain'
p1146
aF2.0
aa(lp1147
S'A woman is cutting flowers'
p1148
aS'A man is holding huge sunflowers'
p1149
aF1.0
aa(lp1150
S'A woman is dancing near a fire'
p1151
aS'A woman is cutting a tomatoe'
p1152
aF0.0
aa(lp1153
S'The man danced in the diner'
p1154
aS'The bomb exploded in the desert'
p1155
aF0.0
aa(lp1156
S'A man is playing flute'
p1157
aS'A man is dancing'
p1158
aF0.0
aa(lp1159
S'American flag is waving'
p1160
aS'A American flag is blowing in the wind'
p1161
aF4.0
aa(lp1162
S'A lion is walking in an enclosed area'
p1163
aS'A lion is walking around'
p1164
aF3.0
aa(lp1165
S'A tiger is walking around his cage'
p1166
aS'A tiger walks around aimlessly'
p1167
aF3.0
aa(lp1168
S'A person pours cooking oil into a pot'
p1169
aS'A person is pouring olive oil into a pot on the stove'
p1170
aF4.0
aa(lp1171
S'A woman is cutting potato'
p1172
aS'A woman is riding a horse'
p1173
aF1.0
aa(lp1174
S'A woman is slicing a lemon'
p1175
aS'A man is showing a bread'
p1176
aF0.0
aa(lp1177
S'A man is making a bed'
p1178
aS'A man is speaking to an audience'
p1179
aF1.0
aa(lp1180
S'A parrot is talking'
p1181
aS'A parrot is talking into a microphone'
p1182
aF3.0
aa(lp1183
S'A woman is playing the flute'
p1184
aS'A woman is slicing some tuna'
p1185
aF0.0
aa(lp1186
S'A person is riding a motorcyle'
p1187
aS'A person is chopping an onion'
p1188
aF0.0
aa(lp1189
S'A man is singing into a microphone'
p1190
aS'A man is dancing in the rain'
p1191
aF0.0
aa(lp1192
S'A man pours rice into a pot'
p1193
aS'A man is putting rice in a bowling pot'
p1194
aF4.0
aa(lp1195
S'The dog is barking at the toy'
p1196
aS'A dog is barking at an electronic toy duck'
p1197
aF4.0
aa(lp1198
S'A woman is adding an egg and stirring'
p1199
aS'A woman is mixing an egg in a bowl'
p1200
aF4.0
aa(lp1201
S'A woman covers a piece of meat with flour'
p1202
aS'A woman is seasoning a piece of meat'
p1203
aF3.0
aa(lp1204
S'A person is slicing some garlic'
p1205
aS'A person is dicing a clove of garlic with a knife'
p1206
aF4.0
aa(lp1207
S'A white cat perched on a small wooden cabinet is looking outside the window'
p1208
aS'A cat perched on a table looks out the window'
p1209
aF3.0
aa(lp1210
S'A woman is exercising'
p1211
aS'A woman lifts weights'
p1212
aF3.0
aa(lp1213
S'A man does floor exercises'
p1214
aS'A man is exercising'
p1215
aF4.0
aa(lp1216
S'A child runs into and out of the ocean waves'
p1217
aS'A young boy is running toward and from the ocean waves'
p1218
aF4.0
aa(lp1219
S'A man is slicing a potatoe'
p1220
aS'A man is peeling a banana'
p1221
aF1.0
aa(lp1222
S'A man is playing the piano'
p1223
aS'A man is playing a wooden flute'
p1224
aF1.0
aa(lp1225
S'A guy is riding a horse'
p1226
aS'A man is riding a horse in the desert'
p1227
aF3.0
aa(lp1228
S'Someone is playing piano'
p1229
aS'A person is playing a keyboard piano'
p1230
aF4.0
aa(lp1231
S'The woman is putting makeup on the man'
p1232
aS'A woman is painting the face of a man'
p1233
aF3.0
aa(lp1234
S'The woman droppped eggplant into the pan'
p1235
aS'A woman puts chopped eggplant into a skillet'
p1236
aF4.0
aa(lp1237
S'A dog is stealing food from a refrigerator'
p1238
aS'The dog took something out of the refrigerator'
p1239
aF3.0
aa(lp1240
S'A man plays a trumpet'
p1241
aS'A man is playing a musical instrument'
p1242
aF3.0
aa(lp1243
S'A person uses a blowtorch on two cameras'
p1244
aS'A person is burning cameras'
p1245
aF2.0
aa(lp1246
S'A woman is slicing a lemon'
p1247
aS'A woman in a kitchen peels a lemon'
p1248
aF3.0
aa(lp1249
S'A tiger trys to climb the wall'
p1250
aS'A lion is trying to climb up over a wall'
p1251
aF3.0
aa(lp1252
S'A man is preparing a hanging rope'
p1253
aS'A man is tying a noose'
p1254
aF5.0
aa(lp1255
S'A woman dances on a stage'
p1256
aS'A woman is dancing'
p1257
aF3.0
aa(lp1258
S'A woman is slicing ginger'
p1259
aS'A woman is cutting potatoes'
p1260
aF2.0
aa(lp1261
S'Men are playing soccer'
p1262
aS'Two teams play soccer'
p1263
aF3.0
aa(lp1264
S'The girl is riding the horse'
p1265
aS'The girl is spraying the plants with water'
p1266
aF0.0
aa(lp1267
S'A man is putting a knife in a vice'
p1268
aS'A man is getting into a car in a garage'
p1269
aF1.0
aa(lp1270
S'A person is frying'
p1271
aS'A person is peeling a potato'
p1272
aF1.0
aa(lp1273
S'A man is shooting a pistol'
p1274
aS'A woman is chopping garlic'
p1275
aF1.0
aa(lp1276
S'A woman is swinging her arms'
p1277
aS'A woman is slicing an onion'
p1278
aF1.0
aa(lp1279
S'A man is walking outside'
p1280
aS'A man is dancing'
p1281
aF1.0
aa(lp1282
S'A woman is cooking meat'
p1283
aS'A man is speaking'
p1284
aF0.0
aa(lp1285
S'A man dries his hands'
p1286
aS'A woman fixes her hair'
p1287
aF0.0
aa(lp1288
S'A soccer player is kicking the soccer ball into the goal from a long way down the field'
p1289
aS'A soccer player kicks the ball into the goal'
p1290
aF3.0
aa(lp1291
S'A person is scrubbing a zucchini'
p1292
aS'A woman is scrubbing a zucchini with a vegetable brush'
p1293
aF4.0
aa(lp1294
S'A puppy is trying to come out from the sink'
p1295
aS'The puppy tried to get out of the tub'
p1296
aF3.0
aa(lp1297
S'A girl is playing the piano'
p1298
aS'A little girl is playing a grand piano on stage'
p1299
aF3.0
aa(lp1300
S'A man is drawing some figures'
p1301
aS'A man is drawing on a digital dry erase board'
p1302
aF3.0
aa(lp1303
S'The monkey is hanging from the trees'
p1304
aS'The monkey swung from branch to branch'
p1305
aF2.0
aa(lp1306
S'Some children are jumping on Trampoline'
p1307
aS'Two boy are playing on a trampoline'
p1308
aF3.0
aa(lp1309
S'A person is folding a square paper piece'
p1310
aS'A person folds a piece of paper'
p1311
aF4.0
aa(lp1312
S'A woman with a knife is slicing a pepper'
p1313
aS'A women slicing green pepper'
p1314
aF4.0
aa(lp1315
S'A panda bear is chewing on a stick'
p1316
aS'A baby panda plays with a stick'
p1317
aF3.0
aa(lp1318
S'A man is adding oil to car'
p1319
aS'A man is putting anti-freeze into a car'
p1320
aF2.0
aa(lp1321
S'The people are lifting bags'
p1322
aS'Several people are carrying large bags'
p1323
aF4.0
aa(lp1324
S'The boy is playing the piano'
p1325
aS'The woman is pouring oil into the pan'
p1326
aF0.0
aa(lp1327
S'A man is talking on the phone'
p1328
aS'A man is moon-walking across a store'
p1329
aF0.0
aa(lp1330
S'A man is slicing a carrot by a machine'
p1331
aS'A man is climbing a rope'
p1332
aF0.0
aa(lp1333
S'A boy played a keyboard'
p1334
aS'A person is playing a piano keyboard'
p1335
aF3.0
aa(lp1336
S'A cat is playing with an antenna'
p1337
aS'A boy is playing in the mud'
p1338
aF0.0
aa(lp1339
S'A woman is slicing pumpkin'
p1340
aS'A person is slicing cantaloupe'
p1341
aF2.0
aa(lp1342
S'A woman is braiding her hair'
p1343
aS'A man is riding a motorcycle'
p1344
aF0.0
aa(lp1345
S'A man is cutting a potato'
p1346
aS'A woman is climbing a rock wall'
p1347
aF0.0
aa(lp1348
S'A woman is feeding a baby'
p1349
aS'A man is adding water to pan'
p1350
aF0.0
aa(lp1351
S'A man is playing a guitar'
p1352
aS'A woman is riding a horse'
p1353
aF1.0
aa(lp1354
S'The people threw the dummy over the cliff edge'
p1355
aS'Some people are throwing a dummy off a cliff'
p1356
aF5.0
aa(lp1357
S'A gun is being fired'
p1358
aS'A potato is being peeled'
p1359
aF1.0
aa(lp1360
S'A woman is mixing eggs'
p1361
aS'The woman is eating'
p1362
aF1.0
aa(lp1363
S'A woman is cutting a plastic sheet'
p1364
aS'A woman is playing a guitar on streets'
p1365
aF1.0
aa(lp1366
S'A woman cuts a pineapple'
p1367
aS'A woman is slicing a pineapple into pieces'
p1368
aF4.0
aa(lp1369
S'A woman is adding spices on a meat'
p1370
aS'A woman adds ingredients to beef'
p1371
aF4.0
aa(lp1372
S'A person is adding oil in the pan'
p1373
aS'The cook pouring oil into the pan'
p1374
aF4.0
aa(lp1375
S'A cook seasons some dough'
p1376
aS'A man is seasoning some dough in a pan'
p1377
aF4.0
aa(lp1378
S'A boy is running on a beach'
p1379
aS'Two boys are playing in the beach'
p1380
aF3.0
aa(lp1381
S'A baby monkey scratches itself'
p1382
aS'The monkey scratched his tummy'
p1383
aF3.0
aa(lp1384
S'The man is throwing knives at a tree'
p1385
aS'A man is throwing blades into a close target outside'
p1386
aF3.0
aa(lp1387
S'A boy is riding a bike on a gate'
p1388
aS'A woman is riding a horse'
p1389
aF1.0
aa(lp1390
S'The woman is slicing tofu'
p1391
aS'The woman is putting on lipstick'
p1392
aF0.0
aa(lp1393
S'A man is riding on a boat'
p1394
aS'A man is tying in the machine'
p1395
aF0.0
aa(lp1396
S'A woman is folding paper'
p1397
aS'A woman is applying eye shadow'
p1398
aF0.0
aa(lp1399
S'Someone is folding a piece of paper'
p1400
aS'A person is slicing a small pieces of ginger'
p1401
aF0.0
aa(lp1402
S'A man is doing a card trick'
p1403
aS'A man is squeezing water'
p1404
aF0.0
aa(lp1405
S'A man is playing the piano'
p1406
aS'Someone is playing guitar'
p1407
aF1.0
aa(lp1408
S'A man is lifting weights'
p1409
aS'A man is chopping egg plant'
p1410
aF0.0
aa(lp1411
S'A man is mowing grass'
p1412
aS'A guy is mowing the lawn'
p1413
aF5.0
aa(lp1414
S'A person is mixing water and flour'
p1415
aS'A person is hitchhiking on a road'
p1416
aF1.0
aa(lp1417
S'The two dogs were in the pen'
p1418
aS'The cowboy rode his horse in the desert'
p1419
aF0.0
aa(lp1420
S'A man is riding on one wheel on a motorcycle'
p1421
aS'A person is performing tricks on a motorcycle'
p1422
aF3.0
aa(lp1423
S'A man is serving cake'
p1424
aS'A man seasoning quail'
p1425
aF1.0
aa(lp1426
S'A cat opens a drawer and climbs inside'
p1427
aS'A big cat opens a plastic drawer with his paws and then hops inside'
p1428
aF4.0
aa(lp1429
S'Someone is greating a carrot'
p1430
aS'A woman is grating an orange food'
p1431
aF3.0
aa(lp1432
S'A man is opening a box using a knife'
p1433
aS'A man is playing a guitar'
p1434
aF0.0
aa(lp1435
S'A man is kicking oots of water'
p1436
aS'A woman is slicing a red pepper'
p1437
aF0.0
aa(lp1438
S'A man is eating'
p1439
aS'A woman is rock climbing'
p1440
aF0.0
aa(lp1441
S'A puppy is repeatedly rolling from side to side while on its back'
p1442
aS'A dog is rolling from side to side'
p1443
aF4.0
aa(lp1444
S'A young boy sings and plays a guitar'
p1445
aS'A kid plays the guitar'
p1446
aF3.0
aa(lp1447
S'The woman is peeling lemon'
p1448
aS'The man is balancing on the wire'
p1449
aF0.0
aa(lp1450
S'A man is playing the trumpet'
p1451
aS'Someone is playing with a toad'
p1452
aF1.0
aa(lp1453
S'A man is standing on a roof top playing a violin'
p1454
aS'A man is on a roof dancing'
p1455
aF2.0
aa(lp1456
S'A dog is looking around'
p1457
aS'A dog is watching a store counter'
p1458
aF2.0
aa(lp1459
S'A woman is slicing an onion'
p1460
aS'A man is shown slicing a carrot with a knife'
p1461
aF1.0
aa(lp1462
S'The man drilled holes into the wood'
p1463
aS'A man drills wood'
p1464
aF4.0
aa(lp1465
S'Someone is cutting a circle out of a pink sheet of paper'
p1466
aS'Someone is pouring tomato sauce into a pot of meat'
p1467
aF0.0
aa(lp1468
S'A man is playing flute'
p1469
aS'A man is petting a tied up dog'
p1470
aF0.0
aa(lp1471
S'A man is placing meat in a bag'
p1472
aS'A man is drivong a car'
p1473
aF1.0
aa(lp1474
S'A girl is eating a cupcake'
p1475
aS'A man is playing a trumpet'
p1476
aF0.0
aa(lp1477
S'A rabbit is sniffing and pawing a stuffed rabbit'
p1478
aS'A live rabbit is playing with a stuffed animal bunny'
p1479
aF5.0
aa(lp1480
S'A man is buttering bread'
p1481
aS'A woman is ridint a horse'
p1482
aF0.0
aa(lp1483
S'A monkey is karate kicking a person'
p1484
aS'A monkey pratices martial arts'
p1485
aF3.0
aa(lp1486
S'A woman is squeezing some cucumber slices'
p1487
aS'A woman is getting doused in green slime'
p1488
aF1.0
aa(lp1489
S'A man is taking out the insides of a green pepper'
p1490
aS'Someone is removing the seeds from a bell pepper'
p1491
aF4.0
aa(lp1492
S'A man takes a piece of pepperoni pizza out of a pizza box and puts it on the lid after he closes the box'
p1493
aS'The man took a piece of pepperoni pizza out of the box'
p1494
aF3.0
aa(lp1495
S'The man added vegetables to the broth in the pot'
p1496
aS'A man is adding sliced vegetables to a cooking bowl with water'
p1497
aF3.0
aa(lp1498
S'The man ran and jumped against the wall'
p1499
aS'A man jumps into a wall'
p1500
aF3.0
aa(lp1501
S'A man is playing a cello'
p1502
aS'A man is rapidly lifting small weights'
p1503
aF0.0
aa(lp1504
S'The man is talking'
p1505
aS'A man is walking down stairs'
p1506
aF0.0
aa(lp1507
S'A man tries to feed a mouse to a snake'
p1508
aS'A man is teasing a snake with a mouse'
p1509
aF3.0
aa(lp1510
S'The man is seasoning the sausages'
p1511
aS'The man added seasoning to water in a bowl'
p1512
aF2.0
aa(lp1513
S'A clown is singing and people are dancing'
p1514
aS'A clown is singing'
p1515
aF3.0
aa(lp1516
S'A woman is feeding an aardvark'
p1517
aS'A woman is chopping up garlic'
p1518
aF0.0
aa(lp1519
S'A man shappens a knife'
p1520
aS'A man carries a women'
p1521
aF1.0
aa(lp1522
S'A person is rinsing a steak off with water'
p1523
aS'A man is rinsing a large steak'
p1524
aF4.0
aa(lp1525
S'A boy rode his bike on top of a metal fence'
p1526
aS'A BMX biker rides along the top of a fence'
p1527
aF3.0
aa(lp1528
S'A man is throwing knives at a tree'
p1529
aS'A man is showing magic'
p1530
aF2.0
aa(lp1531
S'A man is playing the drums'
p1532
aS'A woman is slicing some leaves'
p1533
aF0.0
aa(lp1534
S'A woman is brushing her feet'
p1535
aS'A woman is chopping an onion'
p1536
aF0.0
aa(lp1537
S'A man is playing a ukulele'
p1538
aS'A man is sitting and playing a small guitar'
p1539
aF2.0
aa(lp1540
S'Girls are walking on the stage'
p1541
aS'Women models are walking down a catwalk'
p1542
aF3.0
aa(lp1543
S'A woman is doing weight exercises'
p1544
aS'A woman is exercising with a barbell'
p1545
aF4.0
aa(lp1546
S'A man is peeling a potato'
p1547
aS'A man is hiking'
p1548
aF1.0
aa(lp1549
S'A large bird standing on a table picks up a plastic glass containing liquid and places it in a bowl of something'
p1550
aS"A bird picks up a plastic cup containing a liquid with it's beak and puts the cup into a bowl"
p1551
aF4.0
aa(lp1552
S'A woman is in the rain'
p1553
aS'A car is driving along the road'
p1554
aF0.0
aa(lp1555
S'A woman is hitting a man'
p1556
aS'A man is holding a slow loris'
p1557
aF0.0
aa(lp1558
S'A woman is riding an elephant'
p1559
aS'A man is lifting himself'
p1560
aF0.0
aa(lp1561
S'A man is lifting weights'
p1562
aS'A woman is exercising her abs'
p1563
aF1.0
aa(lp1564
S'A person is riding a jetski in the waves'
p1565
aS'A woman is riding a seadoo'
p1566
aF2.0
aa(lp1567
S'A woman is removing skin from some meat'
p1568
aS'A woman is slicing a tomato'
p1569
aF1.0
aa(lp1570
S'A woman is wearing headphones'
p1571
aS'A woman is chopping some shiso leaves'
p1572
aF1.0
aa(lp1573
S'A kitten is drinking milk from a bowl'
p1574
aS'A small child is drinking water from a cup'
p1575
aF1.0
aa(lp1576
S'A kitten is eating its food from a plate'
p1577
aS'A kitten eats some food'
p1578
aF4.0
aa(lp1579
S'A woman is reading a lifestyle magazine'
p1580
aS'A woman is slicing a meat into pieces'
p1581
aF1.0
aa(lp1582
S'A man is pouring chili into a bowl'
p1583
aS'A man opens a can and pours the contents into a bowl'
p1584
aF3.0
aa(lp1585
S'A man is stirring ingredients in a bowl'
p1586
aS'A man is beating two eggs in a bowl with a fork'
p1587
aF3.0
aa(lp1588
S'The bird ate the food in the tree from a bowl'
p1589
aS'A bird is eating from a bowl'
p1590
aF3.0
aa(lp1591
S'A group of girls are exiting a taxi'
p1592
aS'A video clip of Rihanna leaving a taxi'
p1593
aF2.0
aa(lp1594
S'A man breaks cinder blocks on another man'
p1595
aS'A woman breaks an egg into a pan'
p1596
aF1.0
aa(lp1597
S'A woman is seasoning a piece of meat'
p1598
aS'A man is loading a rifle with bullets'
p1599
aF0.0
aa(lp1600
S'A woman is relaxing in a bath tub'
p1601
aS'A woman is stabbing a potato with a fork'
p1602
aF0.0
aa(lp1603
S'A woman is adding oil on fishes'
p1604
aS'The woman is cutting potatoes'
p1605
aF1.0
aa(lp1606
S'A woman is writing something'
p1607
aS'A woman is chopping green onions'
p1608
aF1.0
aa(lp1609
S'A man is chopping coriander leaf'
p1610
aS'A man is playing a guitar'
p1611
aF1.0
aa(lp1612
S'A man takes a slice of pizza'
p1613
aS'A man talks on his cell phone'
p1614
aF1.0
aa(lp1615
S'A man is placing meat inside a plastic bag'
p1616
aS'A woman is carrying a wallaby in a bag'
p1617
aF0.0
aa(lp1618
S'A baby eats his food'
p1619
aS'A baby is being fed peas'
p1620
aF3.0
aa(lp1621
S'A man is slicing a carrot by a machine'
p1622
aS'A man is standing in the rain'
p1623
aF0.0
aa(lp1624
S'A rabbi is talking'
p1625
aS'A man is walking on a rope'
p1626
aF0.0
aa(lp1627
S'A man rides a horse'
p1628
aS"A woman rubs a baby's leg"
p1629
aF0.0
aa(lp1630
S'A man is playing guitar'
p1631
aS'Smeone is laying down'
p1632
aF0.0
aa(lp1633
S'A man is slicing a bun'
p1634
aS'A man is breaking pots'
p1635
aF0.0
aa(lp1636
S'A man  is driving a car'
p1637
aS'A woman dips a shrimp in batter'
p1638
aF0.0
aa(lp1639
S'A dog is pawing at a fly in the carpet before it'
p1640
aS'The dog played with a bug on the carpet'
p1641
aF4.0
aa(lp1642
S'A dog is barking'
p1643
aS'A jet is flying'
p1644
aF0.0
aa(lp1645
S'A man is playing a guitar and singing on a stage'
p1646
aS'A man is playing the electric guitar'
p1647
aF3.0
aa(lp1648
S'A monkey is walking on a bed'
p1649
aS'A man is riding a horse'
p1650
aF0.0
aa(lp1651
S'A woman is cooking broccoli'
p1652
aS'A man is eating his food'
p1653
aF1.0
aa(lp1654
S'A man is hitting a boy with flower vase'
p1655
aS'A man is cutting a mat'
p1656
aF0.0
aa(lp1657
S'A boy is playing a piano'
p1658
aS'A man is singing and playing a guitar'
p1659
aF1.0
aa(lp1660
S'A man is frying a tortilla'
p1661
aS'A person is performing a card trick'
p1662
aF0.0
aa(lp1663
S'A woman serving volleyballs over a net'
p1664
aS'One woman hands volleyballs to another woman who serves them'
p1665
aF3.0
aa(lp1666
S'The person is starting a fire'
p1667
aS'A person makes fire'
p1668
aF5.0
aa(lp1669
S'A man is slicing cucumber with a knife'
p1670
aS'A man is cooking a tortilla in a skillet'
p1671
aF1.0
aa(lp1672
S'A man is playing an electronic keyboard'
p1673
aS'A band is playing instruments'
p1674
aF1.0
aa(lp1675
S'The man is mixing whipping cream'
p1676
aS'The man is holding a skunk'
p1677
aF0.0
aa(lp1678
S'A man is playing a violin'
p1679
aS'The baby is laughing and crawling'
p1680
aF0.0
aa(lp1681
S'A man is stirring juice'
p1682
aS'A man is peeling an onion'
p1683
aF1.0
aa(lp1684
S'A man severs the toe of an empty leather boot using a sword'
p1685
aS'A man is cutting a boot with a sword'
p1686
aF4.0
aa(lp1687
S'Someone is slicing two uncooked racks of ribs apart'
p1688
aS'Someone is cutting a piece of meat'
p1689
aF2.0
aa(lp1690
S'The person is removing the scales from the fish'
p1691
aS'A person is descaling a fish'
p1692
aF5.0
aa(lp1693
S'People are walking in the garden'
p1694
aS'One boy is talking with other man'
p1695
aF0.0
aa(lp1696
S'A young child rides a horse'
p1697
aS'The little girl rode a horse'
p1698
aF3.0
aa(lp1699
S'A person is cutting garlic into pieces with a knife'
p1700
aS'Someone is putting ingredients into a wok'
p1701
aF1.0
aa(lp1702
S'A man is folding a piece of paper'
p1703
aS'A man is slicing a plastic container with a sword'
p1704
aF1.0
aa(lp1705
S'The man was pushed into the water'
p1706
aS'A man pushes another man into the ocean'
p1707
aF3.0
aa(lp1708
S'A boy is upset playing video games'
p1709
aS'Someone is playing a gameboy'
p1710
aF2.0
aa(lp1711
S'A man makes a call on a cell phone'
p1712
aS'A man is making a phone call'
p1713
aF4.0
aa(lp1714
S'A man is speaking on a phone'
p1715
aS'A panda bear is chewing on a stick'
p1716
aF0.0
aa(lp1717
S'A man is kicking pots of water'
p1718
aS'A man is turning foods'
p1719
aF1.0
aa(lp1720
S'A woman is applying cosmetics to her face'
p1721
aS'A woman is putting on makeup'
p1722
aF5.0
aa(lp1723
S'The man lifted barbells'
p1724
aS'A man lifts weights'
p1725
aF4.0
aa(lp1726
S'Two little girls talk on the telephone'
p1727
aS'Two couple are talking with each other'
p1728
aF1.0
aa(lp1729
S'A cat gets stuck on a moving ceiling fan'
p1730
aS'A cat is swinging on a fan'
p1731
aF4.0
aa(lp1732
S'The cat is drinking milk'
p1733
aS'A white cat is licking and drinking milk kept on a plate'
p1734
aF4.0
aa(lp1735
S'A woman feeds an animal by hand'
p1736
aS'The women are feeding the animal'
p1737
aF3.0
aa(lp1738
S'A woman is riding a horse on the beach'
p1739
aS'A woman is washing a bowl'
p1740
aF0.0
aa(lp1741
S'A person is chopping an herb'
p1742
aS'A man is finely chopping a green substance'
p1743
aF3.0
aa(lp1744
S'Several ferrets climb out of their cage'
p1745
aS'Ferrets climb down from a shelf'
p1746
aF2.0
aa(lp1747
S'A woman is collecting tap water in a mug'
p1748
aS'A boy is filling a pitcher with water'
p1749
aF1.0
aa(lp1750
S'A young woman is playing the flute'
p1751
aS'A woman is washing off the top of a freezer'
p1752
aF0.0
aa(lp1753
S'A woman shoots a shotgun'
p1754
aS'The woman is shooting a rifle'
p1755
aF3.0
aa(lp1756
S'A person is whisking eggs in a bowl'
p1757
aS'A woman is beating two eggs in a bowl using a wire whisk'
p1758
aF4.0
aa(lp1759
S'A person is adding chili powder to chili with beans'
p1760
aS'The man is adding seasoning to the beans'
p1761
aF4.0
aa(lp1762
S'A woman rapidly fires a handgun'
p1763
aS'A woman is shooting off a gun'
p1764
aF4.0
aa(lp1765
S'A person is slicing an onion'
p1766
aS'A solenodon is walking along the ground'
p1767
aF0.0
aa(lp1768
S'Rocky and Apollo Creed are running down the beach'
p1769
aS'The men are jogging on the beach'
p1770
aF3.0
aa(lp1771
S'A man is singing while playing the guitar'
p1772
aS'A man is stuffing himself full with food'
p1773
aF1.0
aa(lp1774
S'The dog could not figure out how to get a stick out the doggy door'
p1775
aS'A dog is trying to get through his dog door'
p1776
aF3.0
aa(lp1777
S'A dog is opening a fridge'
p1778
aS'A dog closes a refrigerator door'
p1779
aF2.0
aa(lp1780
S'A woman is mixing eggs in the bowl'
p1781
aS'A man is doing push ups'
p1782
aF0.0
aa(lp1783
S'A boat sails along the water'
p1784
aS'The man is playing the guitar'
p1785
aF0.0
aa(lp1786
S'A woman is holding a dancing baby up'
p1787
aS'A woman is abusing her child'
p1788
aF1.0
aa(lp1789
S'A woman is doing a joker make up on a man'
p1790
aS'The girl applied face makeup to a man'
p1791
aF2.0
aa(lp1792
S'The lady added cheese to the sauce'
p1793
aS'A man pours a plate of shredded cheese into a pot of sauce'
p1794
aF2.0
aa(lp1795
S'A man is giving a lecture on a podium'
p1796
aS'A man is delivering a lecture at an event celebrating the game of cricket'
p1797
aF2.0
aa(lp1798
S'The cat shimmied under the bed'
p1799
aS'A cat is crawling upside down under the couch'
p1800
aF2.0
aa(lp1801
S'An okapi is eating from a tree'
p1802
aS'A moose drinks from a sprinkler'
p1803
aF0.0
aa(lp1804
S'A woman is chopping garlic'
p1805
aS'A woman slices a fish'
p1806
aF1.0
aa(lp1807
S'A man is cutting grass'
p1808
aS'A masked man sings'
p1809
aF0.0
aa(lp1810
S'A man is cutting grass'
p1811
aS'A clown is singing'
p1812
aF0.0
aa(lp1813
S'A boy runs away from his fishing line'
p1814
aS'A boy is running in front of fish hanging on fishing rod'
p1815
aF3.0
aa(lp1816
S'Several kids jump up and down on a trampoline'
p1817
aS'A man is doing back flips on a trampoline'
p1818
aF2.0
aa(lp1819
S'The man played haki sak in the office'
p1820
aS'The man is seasoning the vegetables'
p1821
aF0.0
aa(lp1822
S'A man is carrying another man on his back'
p1823
aS'A man is taking pictures of ant'
p1824
aF0.0
aa(lp1825
S'The lady made some slices on the shrimp'
p1826
aS'A chef is slicing a shrimp'
p1827
aF3.0
aa(lp1828
S'A woman is pouring egg into a frying pan'
p1829
aS'A man is petting two dogs'
p1830
aF0.0
aa(lp1831
S'A woman is frying ground meat'
p1832
aS'A man is cutting a trunk with an axe'
p1833
aF1.0
aa(lp1834
S'Meat is dropped into a pan'
p1835
aS'A woman is putting meat in a pan'
p1836
aF3.0
aa(lp1837
S'A woman is cutting scallions'
p1838
aS'A woman falls on a sand castle'
p1839
aF0.0
aa(lp1840
S'A man is slam dunking a ball'
p1841
aS'A woman is slicing some onions'
p1842
aF0.0
aa(lp1843
S'A machine is sharpening a pencil'
p1844
aS'A girl is riding a bicycle'
p1845
aF0.0
aa(lp1846
S'A woman is brushing her feet'
p1847
aS'The sun is rising behind trees'
p1848
aF0.0
aa(lp1849
S'A man is cleaning the windows'
p1850
aS'A man is driving a car'
p1851
aF0.0
aa(lp1852
S'Someone is mixing a liquid'
p1853
aS'A man is playing a guitar'
p1854
aF0.0
aa(lp1855
S'A person is stirring rice'
p1856
aS'A woman is cracking an egg'
p1857
aF1.0
aa(lp1858
S'Three boys in karate costumes are fighting'
p1859
aS'Three men are practicing karate moves in a field'
p1860
aF1.0
aa(lp1861
S'A man puts a knife in a vice'
p1862
aS'A man is dancing'
p1863
aF0.0
aa(lp1864
S'A boy plays violin on stage'
p1865
aS'A boy is onstage playing the violin'
p1866
aF4.0
aa(lp1867
S'A woman cuts a pink loaf with a knife'
p1868
aS'A man is playing a guitar'
p1869
aF0.0
aa(lp1870
S'A man is adding pork chops to a pan'
p1871
aS'A woman is peeling a potato'
p1872
aF1.0
aa(lp1873
S'The men are fighting each other'
p1874
aS'The man drew on the white paper'
p1875
aF0.0
aa(lp1876
S'A man is catching a ball'
p1877
aS'A cat is rubbing against a baby'
p1878
aF0.0
aa(lp1879
S'A girl is reading a newspaper'
p1880
aS'A chef is peeling a potato'
p1881
aF0.0
aa(lp1882
S'A slow loris bites a persons fingers'
p1883
aS'A small animal is chewing on a finger'
p1884
aF3.0
aa(lp1885
S'A man is walking along a path through wilderness'
p1886
aS'A man is peeling an onion'
p1887
aF1.0
aa(lp1888
S'The man played his guitar'
p1889
aS'A guy is singing while playing his guitar'
p1890
aF3.0
aa(lp1891
S'Swimmers are racing in a lake'
p1892
aS'Women swimmers are diving in from the starting platform'
p1893
aF2.0
aa(lp1894
S'Some men are skating on the road'
p1895
aS'Two boys are skate boarding'
p1896
aF3.0
aa(lp1897
S'A man pours liquid into a pan'
p1898
aS'The chef poured oil in the pan'
p1899
aF3.0
aa(lp1900
S'A boy is playing piano and singing'
p1901
aS'A pig is agitating a lion'
p1902
aF0.0
aa(lp1903
S'A woman is slicing big pepper'
p1904
aS'A man is playing an instrument'
p1905
aF0.0
aa(lp1906
S'A person is boiling noodles'
p1907
aS'A cat is licking a bottle'
p1908
aF0.0
aa(lp1909
S'A cat and a ferret are playing'
p1910
aS'A ferret and kitten play together'
p1911
aF4.0
aa(lp1912
S'A monkey is walking through the water'
p1913
aS'A guy is playing a trumpet'
p1914
aF0.0
aa(lp1915
S'A woman is putting on makeup'
p1916
aS'A band is singing'
p1917
aF0.0
aa(lp1918
S'A person is slicing some onions'
p1919
aS'A woman is chopping herbs'
p1920
aF1.0
aa(lp1921
S'A dog is driving a car'
p1922
aS'A guy is talking into a microphone'
p1923
aF0.0
aa(lp1924
S'The man sang on stage into the microphone'
p1925
aS'A man in a suit is standing at a microphone and singing'
p1926
aF4.0
aa(lp1927
S'A car backs out of a space'
p1928
aS'A car is taking reverse'
p1929
aF2.0
aa(lp1930
S'The animal with the big eyes is eating'
p1931
aS'A slow loris is eating'
p1932
aF3.0
aa(lp1933
S'A man is holding a frog'
p1934
aS'A man is emptying a plastic container'
p1935
aF1.0
aa(lp1936
S'A baby is crawling happily'
p1937
aS'A cat is walking on hardwood floor'
p1938
aF0.0
aa(lp1939
S'A man is traveling in a boat'
p1940
aS'A woman is cutting up a carrot with a knife'
p1941
aF0.0
aa(lp1942
S'The man rode his motorcycle down the highway'
p1943
aS'A person is driving a motorcycle on a road'
p1944
aF4.0
aa(lp1945
S'A tiger club is playing with a ball'
p1946
aS'A person is chopping shrimp with a knife'
p1947
aF0.0
aa(lp1948
S'A man reels in a fish'
p1949
aS'A woman is pouring oil in a bowl'
p1950
aF0.0
aa(lp1951
S'A man is dicing an onion'
p1952
aS'The man is playing the guitar'
p1953
aF0.0
aa(lp1954
S'A man performs on a stage'
p1955
aS'A man guts a fish'
p1956
aF0.0
aa(lp1957
S'The women are sitiing down'
p1958
aS'Two women are sitting close to each other and talking'
p1959
aF3.0
aa(lp1960
S'A woman is slicing fruit'
p1961
aS'Two women are slicing some lemons'
p1962
aF2.0
aa(lp1963
S'A man removes a couple of toaster scrambles from a plastic packet'
p1964
aS'A man removes food from a bag'
p1965
aF2.0
aa(lp1966
S'The flag was moving in the air'
p1967
aS'A flag is waving'
p1968
aF4.0
aa(lp1969
S'A woman is dancing by a fire'
p1970
aS'A man ties a noose'
p1971
aF0.0
aa(lp1972
S'A man is meditating'
p1973
aS'The man is riding the horse'
p1974
aF1.0
aa(lp1975
S'A woman is cutting an onion'
p1976
aS'A horse is standing'
p1977
aF0.0
aa(lp1978
S'A boy is cutting paper'
p1979
aS'A man is loading a rifle'
p1980
aF0.0
aa(lp1981
S'A lady mixed up a meat mixture in bowl'
p1982
aS'A woman is stirring meat in a bowl'
p1983
aF4.0
aa(lp1984
S'The man talked on the telephone'
p1985
aS'Girls are walking on the stage'
p1986
aF0.0
aa(lp1987
S'A man is playing the guitar and singing'
p1988
aS'A man is opening a package containing headphones'
p1989
aF1.0
aa(lp1990
S'the soccer player kicked the ball side to side between his legs'
p1991
aS'A person is kicking a soccer ball back and forth between his feet'
p1992
aF3.0
aa(lp1993
S'The baby laughed in his car seat'
p1994
aS'A baby is laughing'
p1995
aF3.0
aa(lp1996
S'An animal is walking'
p1997
aS'A woman is applying eye makeup'
p1998
aF0.0
aa(lp1999
S'A girl is applying makeup on her face'
p2000
aS'A woman is putting on makeup'
p2001
aF3.0
aa(lp2002
S'Someone is scratching an animals belly'
p2003
aS'A woman is stroking a lemur'
p2004
aF2.0
aa(lp2005
S'A man is lifting heavy weights'
p2006
aS"A wallaby is licking a woman's hand"
p2007
aF0.0
aa(lp2008
S'A dog knocks a boy into the water twice'
p2009
aS'A dog pushes a toddler into a rain puddle'
p2010
aF3.0
aa(lp2011
S'A woman puts make-up on'
p2012
aS'A woman is putting on eyeshadow'
p2013
aF3.0
aa(lp2014
S'A boy is playing with a toy'
p2015
aS'A boy plays a handheld game'
p2016
aF3.0
aa(lp2017
S'A man dives off of a cliff'
p2018
aS'A man is riding a motorcycle'
p2019
aF1.0
aa(lp2020
S'A cat plays in his water'
p2021
aS'The cat fished a straw out ouf his water dish'
p2022
aF4.0
aa(lp2023
S'The bird is taking a bath under the faucet'
p2024
aS'A bird is bathing in a sink'
p2025
aF4.0
aa(lp2026
S'A man plays the guitar and sings'
p2027
aS'A man is singing and playing a guitar'
p2028
aF5.0
aa(lp2029
S'A man is coming out into the water'
p2030
aS'A man rises from a swamp'
p2031
aF3.0
aa(lp2032
S'A man and woman dance'
p2033
aS'A man is petting a dog'
p2034
aF0.0
aa(lp2035
S'A man is sweeping the floor of a house using a long broom'
p2036
aS'The man swept the empty living room'
p2037
aF3.0
aa(lp2038
S'A group of couples are dancing'
p2039
aS'Men and women are dancing slowly'
p2040
aF3.0
aa(lp2041
S'A man is scaling a fish'
p2042
aS'A man pours some cooking oil into a pot'
p2043
aF1.0
aa(lp2044
S'A person is adding food in a pan'
p2045
aS'A man is dancing in the street'
p2046
aF0.0
aa(lp2047
S'The man set up his camera to take sunset pictures at the beach'
p2048
aS'A man is taking pictures of a lake'
p2049
aF2.0
aa(lp2050
S'A man is smoking'
p2051
aS'A baby is sucking on a pacifier'
p2052
aF0.0
aa(lp2053
S'Women are holding each other and dancing together'
p2054
aS'Two men are playing table tennis'
p2055
aF0.0
aa(lp2056
S'Someone is holding and petting a baby tiger'
p2057
aS'Someone is rinsing a large beef steak at the kitchen sink'
p2058
aF0.0
aa(lp2059
S'The man is playing the guitar'
p2060
aS'The cat cleaned his face with his paw'
p2061
aF0.0
aa(lp2062
S'The man did pushups on a wall'
p2063
aS'The man tased the food'
p2064
aF0.0
aa(lp2065
S'A woman cuts up a vegetable'
p2066
aS'A woman is slicing egg plant'
p2067
aF2.0
aa(lp2068
S'A person is putting shredded cheese in a pot'
p2069
aS'A hamster is eating some seeds'
p2070
aF0.0
aa(lp2071
S'The man is trying to feed the snake with a mouse'
p2072
aS'A man is working on his laptop'
p2073
aF1.0
aa(lp2074
S'A person breaks an egg into a small bowl'
p2075
aS'A man cracks an egg'
p2076
aF3.0
aa(lp2077
S'A man is playing keyboards'
p2078
aS'A man is riding a mechanical bull'
p2079
aF1.0
aa(lp2080
S'A dog is running around a yard'
p2081
aS'A black pet dog runs around in the garden of a house'
p2082
aF3.0
aa(lp2083
S'A child is walking down the street as a jeep pulls up'
p2084
aS'A woman is walking along a road and a man in a motorcar pulls up beside her'
p2085
aF1.0
aa(lp2086
S'A man is erasing a chalk board'
p2087
aS'A woman is dancing and singing'
p2088
aF0.0
aa(lp2089
S'A man is adding oil to a pot'
p2090
aS'A dog is catching a fish in a river'
p2091
aF0.0
aa(lp2092
S'The girl danced in front of the bonfire'
p2093
aS'A woman is dancing to music standing near a bonfire'
p2094
aF3.0
aa(lp2095
S'The man is exercising'
p2096
aS'A man is doing pull-ups'
p2097
aF3.0
aa(lp2098
S'A man is chopping butter into a container'
p2099
aS'A woman is cutting shrimps'
p2100
aF1.0
aa(lp2101
S'A girl is dragged downhill by a dog'
p2102
aS'A dog is pulling a child down a hill'
p2103
aF4.0
aa(lp2104
S'The man took off his sunglasses while talking'
p2105
aS'A man wearing a hard hat removes his glasses as he speaks'
p2106
aF3.0
aa(lp2107
S'The two men did a funny skit with a boxer in front of a crowd of people'
p2108
aS'Boys are dancing in front of people'
p2109
aF2.0
aa(lp2110
S'The girl is tiding up her bed'
p2111
aS'A woman is making a bed'
p2112
aF3.0
aa(lp2113
S'Someoen is cooking onions'
p2114
aS'A man is swinging nunchucks'
p2115
aF0.0
aa(lp2116
S'The man is using a sledghammer to break the concrete block that is on the other man'
p2117
aS'A man breaks a slab of concrete that is lying on a prone man with a sledge hammer'
p2118
aF5.0
aa(lp2119
S'The lady put the dried noodles in the hot water to cook'
p2120
aS'A woman places a container of noodles in a pan of water'
p2121
aF4.0
aa(lp2122
S'A tiger is playing with his trainer'
p2123
aS'A tiger attacks a man'
p2124
aF1.0
aa(lp2125
S'The girls danced on the stage'
p2126
aS'A girl is putting on makeup'
p2127
aF0.0
aa(lp2128
S'A panda bear is laying down'
p2129
aS'A baby panda relaxes on some logs'
p2130
aF3.0
aa(lp2131
S'Two kids are playing in a swimming pool with a green colored crocodile float'
p2132
aS'Two kids push an inflatable crocodile around in a pool'
p2133
aF4.0
aa(lp2134
S'A couple of policewomen are singing karaoke'
p2135
aS'Two women are dancing'
p2136
aF1.0
aa(lp2137
S'A man is putting broccoli into water'
p2138
aS'A person is peeling a potato'
p2139
aF1.0
aa(lp2140
S'A chimp is kicking a target'
p2141
aS'A woman is putting oil into a skillet'
p2142
aF0.0
aa(lp2143
S'The doctor was helping the patient'
p2144
aS'Doctors are trying to revive a man'
p2145
aF3.0
aa(lp2146
S'Some is grating onion into water'
p2147
aS'A person grates a potato into a bowl'
p2148
aF2.0
aa(lp2149
S'A cat is playing with a watermelon on a floor'
p2150
aS'A man is pouring oil into a pan'
p2151
aF0.0
aa(lp2152
S'A man is doing exercise'
p2153
aS'A baby is laughing'
p2154
aF0.0
aa(lp2155
S'A cat retrieves an object out of a dish of water'
p2156
aS'The cat tried to eat the corn on the cob'
p2157
aF1.0
aa(lp2158
S'A baby is talking'
p2159
aS'A boy is trying to say firetruck'
p2160
aF1.0
aa(lp2161
S'The girl is carrying a baby'
p2162
aS'A man is eating a food'
p2163
aF0.0
aa(lp2164
S'A chef is slicing carrot'
p2165
aS'A person is drawing a picture'
p2166
aF0.0
aa(lp2167
S'A woman boils eggs'
p2168
aS'A woman places two eggs into a pot of water'
p2169
aF3.0
aa(lp2170
S'A woman puts ingredients in a whisked egg'
p2171
aS'A man pours gasoline'
p2172
aF0.0
aa(lp2173
S'A woman is slicing mango'
p2174
aS'A man is putting cheese on a tortilla'
p2175
aF1.0
aa(lp2176
S'A girl is slicing a butter into two pieces'
p2177
aS'A woman is slicing tofu'
p2178
aF1.0
aa(lp2179
S'Several swimmers jump into the water'
p2180
aS'Swimmers are racing in a lake'
p2181
aF2.0
aa(lp2182
S'A man is playing the guitar'
p2183
aS'A person is slicing a meat into pieces'
p2184
aF0.0
aa(lp2185
S'A man spins on a surf board'
p2186
aS'A man is putting barbecue sauce on chicken'
p2187
aF0.0
aa(lp2188
S'A man is opening a package containing headphones'
p2189
aS'A woman is riding a horse'
p2190
aF0.0
aa(lp2191
S'A girl is playing a guitar'
p2192
aS'A boy is playing a key-board between the people'
p2193
aF1.0
aa(lp2194
S'A little girl plays the violin on a beach'
p2195
aS'The girl sat on the couch to crochet'
p2196
aF0.0
aa(lp2197
S"A monkey is karate kicking at someone's gloved hand"
p2198
aS'A monkey pratices martial arts'
p2199
aF4.0
aa(lp2200
S'A woman is adding some mushrooms and liquid to a pot'
p2201
aS'A young man is playing the guitar'
p2202
aF0.0
aa(lp2203
S'A man is passionately playing a guitar in front of an audience'
p2204
aS'A woman is peeling a potato'
p2205
aF0.0
aa(lp2206
S'A female applies something to he hair with her hands'
p2207
aS'A cat is eating a slice of watermelon'
p2208
aF0.0
aa(lp2209
S'A young man is riding a skateboard and jumps onto a sidewalk then off at another curb'
p2210
aS'A man is riding a skateboard'
p2211
aF3.0
aa(lp2212
S'A man is karate kicking at another man wearing protective boxing gloves'
p2213
aS'A man is kick boxing with a trainer'
p2214
aF3.0
aa(lp2215
S"Someone drew on Washington's face on the dollar"
p2216
aS'A person draws on a dollar bill'
p2217
aF3.0
aa(lp2218
S'The girl is slicing an onion'
p2219
aS'A woman is chopping an onion into small pieces'
p2220
aF2.0
aa(lp2221
S'A person dices up an orange pepper'
p2222
aS'The cook is slicing bell peppers'
p2223
aF2.0
aa(lp2224
S'The man is playing the wooden flute'
p2225
aS'A little boy is vacuuming the floor'
p2226
aF0.0
aa(lp2227
S'A young woman is playing a guitar'
p2228
aS'A woman cuts up some meat'
p2229
aF1.0
aa(lp2230
S'The man is aiming a gun'
p2231
aS'A boy is playing on a toy phone'
p2232
aF0.0
aa(lp2233
S'The men are playing soccer'
p2234
aS'A man is riding a motorcycle'
p2235
aF0.0
aa(lp2236
S'Two men are dancing together'
p2237
aS'A woman opens a closet'
p2238
aF0.0
aa(lp2239
S'A woman is running on the beach'
p2240
aS'A dog is swimming in a pool'
p2241
aF0.0
aa(lp2242
S'A man is reading an email'
p2243
aS'A person opening a banana'
p2244
aF0.0
aa(lp2245
S'A man is straining pasta'
p2246
aS'A man plays a wooden flute'
p2247
aF0.0
aa(lp2248
S"Panda's play on a swing"
p2249
aS'A man is playing guitar'
p2250
aF1.0
aa.